target datalayout = "e-m:e-p270:32:32-p271:32:32-p272:64:64-i64:64-i128:128-f80:128-n8:16:32:64-S128"
target triple = "x86_64-pc-linux-gnu"

%struct.expert_field = type { i32, i32 }
%struct._packet_info = type { ptr, ptr, i32, i32, %struct.nstime_t, %struct.nstime_t, %struct.nstime_t, i8, ptr, ptr, ptr, ptr, %struct._address, %struct._address, %struct._address, %struct._address, %struct._address, %struct._address, i32, ptr, i8, [3 x i8], %struct.anon, i32, i32, i32, i32, ptr, i8, ptr, ptr, i16, i16, i32, i32, i16, i32, i32, ptr, ptr, ptr, i8, i8, i16, i16, i16, i32, i16, i16, ptr, ptr, ptr, ptr, ptr, i32, i32 }
%struct.nstime_t = type { i64, i32 }
%struct._address = type { i32, i32, ptr, ptr }
%struct.anon = type { i8, [3 x i8] }

@ei_wsp_oversized_uintvar = internal global %struct.expert_field zeroinitializer, align 4
@hf_sir_section = internal global i32 0, align 4
@hf_sir_version = internal global i32 0, align 4
@hf_sir_app_id_list_len = internal global i32 0, align 4
@hf_sir_app_id_list = internal global i32 0, align 4
@hf_sir_wsp_contact_points_len = internal global i32 0, align 4
@hf_sir_wsp_contact_points = internal global i32 0, align 4
@hf_sir_contact_points_len = internal global i32 0, align 4
@hf_sir_contact_points = internal global i32 0, align 4
@hf_sir_protocol_options_len = internal global i32 0, align 4
@hf_sir_protocol_options = internal global i32 0, align 4
@hf_sir_prov_url_len = internal global i32 0, align 4
@hf_sir_prov_url = internal global i32 0, align 4
@hf_sir_cpi_tag_len = internal global i32 0, align 4
@hf_sir_cpi_tag = internal global i32 0, align 4
@ett_sir = internal global i32 0, align 4
@.str.1307 = private unnamed_addr constant [33 x i8] c": WAP Session Initiation Request\00", align 1

; Function Attrs: null_pointer_is_valid sspstrong uwtable
define internal i32 @dissect_sir(ptr noundef %0, ptr noundef %1, ptr noundef %2, ptr noundef %3) #1 {
  %5 = alloca i32, align 4
  %6 = alloca ptr, align 8
  %7 = alloca ptr, align 8
  %8 = alloca ptr, align 8
  %9 = alloca ptr, align 8
  %10 = alloca i8, align 1
  %11 = alloca i32, align 4
  %12 = alloca i32, align 4
  %13 = alloca i32, align 4
  %14 = alloca i32, align 4
  %15 = alloca i32, align 4
  %16 = alloca ptr, align 8
  %17 = alloca ptr, align 8
  %18 = alloca ptr, align 8
  %19 = alloca i32, align 4
  store ptr %0, ptr %6, align 8
  store ptr %1, ptr %7, align 8
  store ptr %2, ptr %8, align 8
  store ptr %3, ptr %9, align 8
  call void @llvm.lifetime.start.p0(i64 1, ptr %10) #8
  call void @llvm.lifetime.start.p0(i64 4, ptr %11) #8
  call void @llvm.lifetime.start.p0(i64 4, ptr %12) #8
  call void @llvm.lifetime.start.p0(i64 4, ptr %13) #8
  call void @llvm.lifetime.start.p0(i64 4, ptr %14) #8
  store i32 0, ptr %14, align 4
  call void @llvm.lifetime.start.p0(i64 4, ptr %15) #8
  call void @llvm.lifetime.start.p0(i64 8, ptr %16) #8
  call void @llvm.lifetime.start.p0(i64 8, ptr %17) #8
  call void @llvm.lifetime.start.p0(i64 8, ptr %18) #8
  %20 = load ptr, ptr %7, align 8
  %21 = getelementptr inbounds nuw %struct._packet_info, ptr %20, i32 0, i32 1
  %22 = load ptr, ptr %21, align 8
  call void @col_append_str(ptr noundef %22, i32 noundef 25, ptr noundef @.str.1307)
  %23 = load ptr, ptr %8, align 8
  %24 = load i32, ptr @hf_sir_section, align 4
  %25 = load ptr, ptr %6, align 8
  %26 = call ptr @proto_tree_add_item(ptr noundef %23, i32 noundef %24, ptr noundef %25, i32 noundef 0, i32 noundef -1, i32 noundef 0)
  store ptr %26, ptr %18, align 8
  %27 = load ptr, ptr %18, align 8
  %28 = load i32, ptr @ett_sir, align 4
  %29 = call ptr @proto_item_add_subtree(ptr noundef %27, i32 noundef %28)
  store ptr %29, ptr %17, align 8
  %30 = load ptr, ptr %6, align 8
  %31 = call zeroext i8 @tvb_get_uint8(ptr noundef %30, i32 noundef 0)
  store i8 %31, ptr %10, align 1
  %32 = load ptr, ptr %17, align 8
  %33 = load i32, ptr @hf_sir_version, align 4
  %34 = load ptr, ptr %6, align 8
  %35 = load i8, ptr %10, align 1
  %36 = zext i8 %35 to i32
  %37 = call ptr @proto_tree_add_uint(ptr noundef %32, i32 noundef %33, ptr noundef %34, i32 noundef 0, i32 noundef 1, i32 noundef %36)
  %38 = load ptr, ptr %6, align 8
  %39 = load ptr, ptr %7, align 8
  %40 = call i32 @tvb_get_uintvar(ptr noundef %38, i32 noundef 1, ptr noundef %13, ptr noundef %39, ptr noundef @ei_wsp_oversized_uintvar)
  store i32 %40, ptr %11, align 4
  %41 = load ptr, ptr %17, align 8
  %42 = load i32, ptr @hf_sir_app_id_list_len, align 4
  %43 = load ptr, ptr %6, align 8
  %44 = load i32, ptr %13, align 4
  %45 = load i32, ptr %11, align 4
  %46 = call ptr @proto_tree_add_uint(ptr noundef %41, i32 noundef %42, ptr noundef %43, i32 noundef 1, i32 noundef %44, i32 noundef %45)
  %47 = load i32, ptr %13, align 4
  %48 = add i32 1, %47
  store i32 %48, ptr %14, align 4
  %49 = load ptr, ptr %6, align 8
  %50 = load i32, ptr %14, align 4
  %51 = load i32, ptr %11, align 4
  %52 = call ptr @tvb_new_subset_length(ptr noundef %49, i32 noundef %50, i32 noundef %51)
  store ptr %52, ptr %16, align 8
  %53 = load ptr, ptr %17, align 8
  %54 = load ptr, ptr %16, align 8
  %55 = load i32, ptr @hf_sir_app_id_list, align 4
  %56 = load ptr, ptr %7, align 8
  call void @add_headers(ptr noundef %53, ptr noundef %54, i32 noundef %55, ptr noundef %56)
  %57 = load i32, ptr %11, align 4
  %58 = load i32, ptr %14, align 4
  %59 = add i32 %58, %57
  store i32 %59, ptr %14, align 4
  %60 = load ptr, ptr %6, align 8
  %61 = load i32, ptr %14, align 4
  %62 = load ptr, ptr %7, align 8
  %63 = call i32 @tvb_get_uintvar(ptr noundef %60, i32 noundef %61, ptr noundef %13, ptr noundef %62, ptr noundef @ei_wsp_oversized_uintvar)
  store i32 %63, ptr %11, align 4
  %64 = load ptr, ptr %17, align 8
  %65 = load i32, ptr @hf_sir_wsp_contact_points_len, align 4
  %66 = load ptr, ptr %6, align 8
  %67 = load i32, ptr %14, align 4
  %68 = load i32, ptr %13, align 4
  %69 = load i32, ptr %11, align 4
  %70 = call ptr @proto_tree_add_uint(ptr noundef %64, i32 noundef %65, ptr noundef %66, i32 noundef %67, i32 noundef %68, i32 noundef %69)
  %71 = load i32, ptr %13, align 4
  %72 = load i32, ptr %14, align 4
  %73 = add i32 %72, %71
  store i32 %73, ptr %14, align 4
  %74 = load ptr, ptr %6, align 8
  %75 = load i32, ptr %14, align 4
  %76 = load i32, ptr %11, align 4
  %77 = call ptr @tvb_new_subset_length(ptr noundef %74, i32 noundef %75, i32 noundef %76)
  store ptr %77, ptr %16, align 8
  %78 = load ptr, ptr %17, align 8
  %79 = load ptr, ptr %16, align 8
  %80 = load i32, ptr @hf_sir_wsp_contact_points, align 4
  call void @add_addresses(ptr noundef %78, ptr noundef %79, i32 noundef %80)
  %81 = load i8, ptr %10, align 1
  %82 = zext i8 %81 to i32
  %83 = icmp eq i32 %82, 0
  br i1 %83, label %84, label %86

84:                                               ; preds = %4
  %85 = load i32, ptr %14, align 4
  store i32 %85, ptr %5, align 4
  store i32 1, ptr %19, align 4
  br label %207

86:                                               ; preds = %4
  %87 = load i32, ptr %11, align 4
  %88 = load i32, ptr %14, align 4
  %89 = add i32 %88, %87
  store i32 %89, ptr %14, align 4
  %90 = load ptr, ptr %6, align 8
  %91 = load i32, ptr %14, align 4
  %92 = load ptr, ptr %7, align 8
  %93 = call i32 @tvb_get_uintvar(ptr noundef %90, i32 noundef %91, ptr noundef %13, ptr noundef %92, ptr noundef @ei_wsp_oversized_uintvar)
  store i32 %93, ptr %11, align 4
  %94 = load ptr, ptr %17, align 8
  %95 = load i32, ptr @hf_sir_contact_points_len, align 4
  %96 = load ptr, ptr %6, align 8
  %97 = load i32, ptr %14, align 4
  %98 = load i32, ptr %13, align 4
  %99 = load i32, ptr %11, align 4
  %100 = call ptr @proto_tree_add_uint(ptr noundef %94, i32 noundef %95, ptr noundef %96, i32 noundef %97, i32 noundef %98, i32 noundef %99)
  %101 = load i32, ptr %13, align 4
  %102 = load i32, ptr %14, align 4
  %103 = add i32 %102, %101
  store i32 %103, ptr %14, align 4
  %104 = load ptr, ptr %6, align 8
  %105 = load i32, ptr %14, align 4
  %106 = load i32, ptr %11, align 4
  %107 = call ptr @tvb_new_subset_length(ptr noundef %104, i32 noundef %105, i32 noundef %106)
  store ptr %107, ptr %16, align 8
  %108 = load ptr, ptr %17, align 8
  %109 = load ptr, ptr %16, align 8
  %110 = load i32, ptr @hf_sir_contact_points, align 4
  call void @add_addresses(ptr noundef %108, ptr noundef %109, i32 noundef %110)
  %111 = load i32, ptr %11, align 4
  %112 = load i32, ptr %14, align 4
  %113 = add i32 %112, %111
  store i32 %113, ptr %14, align 4
  %114 = load ptr, ptr %6, align 8
  %115 = load i32, ptr %14, align 4
  %116 = load ptr, ptr %7, align 8
  %117 = call i32 @tvb_get_uintvar(ptr noundef %114, i32 noundef %115, ptr noundef %13, ptr noundef %116, ptr noundef @ei_wsp_oversized_uintvar)
  store i32 %117, ptr %11, align 4
  %118 = load ptr, ptr %17, align 8
  %119 = load i32, ptr @hf_sir_protocol_options_len, align 4
  %120 = load ptr, ptr %6, align 8
  %121 = load i32, ptr %14, align 4
  %122 = load i32, ptr %13, align 4
  %123 = load i32, ptr %11, align 4
  %124 = call ptr @proto_tree_add_uint(ptr noundef %118, i32 noundef %119, ptr noundef %120, i32 noundef %121, i32 noundef %122, i32 noundef %123)
  %125 = load i32, ptr %13, align 4
  %126 = load i32, ptr %14, align 4
  %127 = add i32 %126, %125
  store i32 %127, ptr %14, align 4
  %128 = load i32, ptr %11, align 4
  store i32 %128, ptr %12, align 4
  store i32 0, ptr %15, align 4
  br label %129

129:                                              ; preds = %148, %86
  %130 = load i32, ptr %15, align 4
  %131 = load i32, ptr %12, align 4
  %132 = icmp ult i32 %130, %131
  br i1 %132, label %133, label %151

133:                                              ; preds = %129
  %134 = load ptr, ptr %6, align 8
  %135 = load i32, ptr %14, align 4
  %136 = load ptr, ptr %7, align 8
  %137 = call i32 @tvb_get_uintvar(ptr noundef %134, i32 noundef %135, ptr noundef %13, ptr noundef %136, ptr noundef @ei_wsp_oversized_uintvar)
  store i32 %137, ptr %11, align 4
  %138 = load ptr, ptr %17, align 8
  %139 = load i32, ptr @hf_sir_protocol_options, align 4
  %140 = load ptr, ptr %6, align 8
  %141 = load i32, ptr %14, align 4
  %142 = load i32, ptr %13, align 4
  %143 = load i32, ptr %11, align 4
  %144 = call ptr @proto_tree_add_uint(ptr noundef %138, i32 noundef %139, ptr noundef %140, i32 noundef %141, i32 noundef %142, i32 noundef %143)
  %145 = load i32, ptr %13, align 4
  %146 = load i32, ptr %14, align 4
  %147 = add i32 %146, %145
  store i32 %147, ptr %14, align 4
  br label %148

148:                                              ; preds = %133
  %149 = load i32, ptr %15, align 4
  %150 = add i32 %149, 1
  store i32 %150, ptr %15, align 4
  br label %129, !llvm.loop !17

151:                                              ; preds = %129
  %152 = load ptr, ptr %6, align 8
  %153 = load i32, ptr %14, align 4
  %154 = load ptr, ptr %7, align 8
  %155 = call i32 @tvb_get_uintvar(ptr noundef %152, i32 noundef %153, ptr noundef %13, ptr noundef %154, ptr noundef @ei_wsp_oversized_uintvar)
  store i32 %155, ptr %11, align 4
  %156 = load ptr, ptr %17, align 8
  %157 = load i32, ptr @hf_sir_prov_url_len, align 4
  %158 = load ptr, ptr %6, align 8
  %159 = load i32, ptr %14, align 4
  %160 = load i32, ptr %13, align 4
  %161 = load i32, ptr %11, align 4
  %162 = call ptr @proto_tree_add_uint(ptr noundef %156, i32 noundef %157, ptr noundef %158, i32 noundef %159, i32 noundef %160, i32 noundef %161)
  %163 = load i32, ptr %13, align 4
  %164 = load i32, ptr %14, align 4
  %165 = add i32 %164, %163
  store i32 %165, ptr %14, align 4
  %166 = load ptr, ptr %8, align 8
  %167 = load i32, ptr @hf_sir_prov_url, align 4
  %168 = load ptr, ptr %6, align 8
  %169 = load i32, ptr %14, align 4
  %170 = load i32, ptr %11, align 4
  %171 = call ptr @proto_tree_add_item(ptr noundef %166, i32 noundef %167, ptr noundef %168, i32 noundef %169, i32 noundef %170, i32 noundef 0)
  %172 = load i32, ptr %11, align 4
  %173 = load i32, ptr %14, align 4
  %174 = add i32 %173, %172
  store i32 %174, ptr %14, align 4
  %175 = load ptr, ptr %6, align 8
  %176 = load i32, ptr %14, align 4
  %177 = load ptr, ptr %7, align 8
  %178 = call i32 @tvb_get_uintvar(ptr noundef %175, i32 noundef %176, ptr noundef %13, ptr noundef %177, ptr noundef @ei_wsp_oversized_uintvar)
  store i32 %178, ptr %11, align 4
  %179 = load ptr, ptr %17, align 8
  %180 = load i32, ptr @hf_sir_cpi_tag_len, align 4
  %181 = load ptr, ptr %6, align 8
  %182 = load i32, ptr %14, align 4
  %183 = load i32, ptr %13, align 4
  %184 = load i32, ptr %11, align 4
  %185 = call ptr @proto_tree_add_uint(ptr noundef %179, i32 noundef %180, ptr noundef %181, i32 noundef %182, i32 noundef %183, i32 noundef %184)
  %186 = load i32, ptr %13, align 4
  %187 = load i32, ptr %14, align 4
  %188 = add i32 %187, %186
  store i32 %188, ptr %14, align 4
  store i32 0, ptr %15, align 4
  br label %189

189:                                              ; preds = %201, %151
  %190 = load i32, ptr %15, align 4
  %191 = load i32, ptr %11, align 4
  %192 = icmp ult i32 %190, %191
  br i1 %192, label %193, label %204

193:                                              ; preds = %189
  %194 = load ptr, ptr %17, align 8
  %195 = load i32, ptr @hf_sir_cpi_tag, align 4
  %196 = load ptr, ptr %6, align 8
  %197 = load i32, ptr %14, align 4
  %198 = call ptr @proto_tree_add_item(ptr noundef %194, i32 noundef %195, ptr noundef %196, i32 noundef %197, i32 noundef 4, i32 noundef 0)
  %199 = load i32, ptr %14, align 4
  %200 = add i32 %199, 4
  store i32 %200, ptr %14, align 4
  br label %201

201:                                              ; preds = %193
  %202 = load i32, ptr %15, align 4
  %203 = add i32 %202, 1
  store i32 %203, ptr %15, align 4
  br label %189, !llvm.loop !18

204:                                              ; preds = %189
  %205 = load ptr, ptr %6, align 8
  %206 = call i32 @tvb_captured_length(ptr noundef %205)
  store i32 %206, ptr %5, align 4
  store i32 1, ptr %19, align 4
  br label %207

207:                                              ; preds = %204, %84
  call void @llvm.lifetime.end.p0(i64 8, ptr %18) #8
  call void @llvm.lifetime.end.p0(i64 8, ptr %17) #8
  call void @llvm.lifetime.end.p0(i64 8, ptr %16) #8
  call void @llvm.lifetime.end.p0(i64 4, ptr %15) #8
  call void @llvm.lifetime.end.p0(i64 4, ptr %14) #8
  call void @llvm.lifetime.end.p0(i64 4, ptr %13) #8
  call void @llvm.lifetime.end.p0(i64 4, ptr %12) #8
  call void @llvm.lifetime.end.p0(i64 4, ptr %11) #8
  call void @llvm.lifetime.end.p0(i64 1, ptr %10) #8
  %208 = load i32, ptr %5, align 4
  ret i32 %208
}