; Function Attrs: null_pointer_is_valid sspstrong uwtable
define internal i32 @dissect_sir(ptr noundef %0, ptr noundef %1, ptr noundef %2, ptr readnone captures(none) %3) #1 {
  %5 = alloca i32, align 4
  call void @llvm.lifetime.start.p0(i64 4, ptr nonnull %5) #5
  %6 = getelementptr inbounds nuw i8, ptr %1, i64 8
  %7 = load ptr, ptr %6, align 8
  tail call void @col_append_str(ptr noundef %7, i32 noundef 25, ptr noundef nonnull @.str.1307)
  %8 = load i32, ptr @hf_sir_section, align 4
  %9 = tail call ptr @proto_tree_add_item(ptr noundef %2, i32 noundef %8, ptr noundef %0, i32 noundef 0, i32 noundef -1, i32 noundef 0)
  %10 = load i32, ptr @ett_sir, align 4
  %11 = tail call ptr @proto_item_add_subtree(ptr noundef %9, i32 noundef %10)
  %12 = tail call zeroext i8 @tvb_get_uint8(ptr noundef %0, i32 noundef 0)
  %13 = load i32, ptr @hf_sir_version, align 4
  %14 = zext i8 %12 to i32
  %15 = tail call ptr @proto_tree_add_uint(ptr noundef %11, i32 noundef %13, ptr noundef %0, i32 noundef 0, i32 noundef 1, i32 noundef %14)
  %16 = call i32 @tvb_get_uintvar(ptr noundef %0, i32 noundef 1, ptr noundef nonnull %5, ptr noundef %1, ptr noundef nonnull @ei_wsp_oversized_uintvar)
  %17 = load i32, ptr @hf_sir_app_id_list_len, align 4
  %18 = load i32, ptr %5, align 4
  %19 = call ptr @proto_tree_add_uint(ptr noundef %11, i32 noundef %17, ptr noundef %0, i32 noundef 1, i32 noundef %18, i32 noundef %16)
  %20 = load i32, ptr %5, align 4
  %21 = add i32 %20, 1
  %22 = call ptr @tvb_new_subset_length(ptr noundef %0, i32 noundef %21, i32 noundef %16)
  %23 = load i32, ptr @hf_sir_app_id_list, align 4
  call fastcc void @add_headers(ptr noundef %11, ptr noundef %22, i32 noundef %23, ptr noundef %1)
  %24 = add i32 %21, %16
  %25 = call i32 @tvb_get_uintvar(ptr noundef %0, i32 noundef %24, ptr noundef nonnull %5, ptr noundef %1, ptr noundef nonnull @ei_wsp_oversized_uintvar)
  %26 = load i32, ptr @hf_sir_wsp_contact_points_len, align 4
  %27 = load i32, ptr %5, align 4
  %28 = call ptr @proto_tree_add_uint(ptr noundef %11, i32 noundef %26, ptr noundef %0, i32 noundef %24, i32 noundef %27, i32 noundef %25)
  %29 = load i32, ptr %5, align 4
  %30 = add i32 %29, %24
  %31 = call ptr @tvb_new_subset_length(ptr noundef %0, i32 noundef %30, i32 noundef %25)
  %32 = load i32, ptr @hf_sir_wsp_contact_points, align 4
  call fastcc void @add_addresses(ptr noundef %11, ptr noundef %31, i32 noundef %32)
  %33 = icmp eq i8 %12, 0
  br i1 %33, label %78, label %34

34:                                               ; preds = %4
  %35 = add i32 %30, %25
  %36 = call i32 @tvb_get_uintvar(ptr noundef %0, i32 noundef %35, ptr noundef nonnull %5, ptr noundef %1, ptr noundef nonnull @ei_wsp_oversized_uintvar)
  %37 = load i32, ptr @hf_sir_contact_points_len, align 4
  %38 = load i32, ptr %5, align 4
  %39 = call ptr @proto_tree_add_uint(ptr noundef %11, i32 noundef %37, ptr noundef %0, i32 noundef %35, i32 noundef %38, i32 noundef %36)
  %40 = load i32, ptr %5, align 4
  %41 = add i32 %40, %35
  %42 = call ptr @tvb_new_subset_length(ptr noundef %0, i32 noundef %41, i32 noundef %36)
  %43 = load i32, ptr @hf_sir_contact_points, align 4
  call fastcc void @add_addresses(ptr noundef %11, ptr noundef %42, i32 noundef %43)
  %44 = add i32 %41, %36
  %45 = call i32 @tvb_get_uintvar(ptr noundef %0, i32 noundef %44, ptr noundef nonnull %5, ptr noundef %1, ptr noundef nonnull @ei_wsp_oversized_uintvar)
  %46 = load i32, ptr @hf_sir_protocol_options_len, align 4
  %47 = load i32, ptr %5, align 4
  %48 = call ptr @proto_tree_add_uint(ptr noundef %11, i32 noundef %46, ptr noundef %0, i32 noundef %44, i32 noundef %47, i32 noundef %45)
  %49 = load i32, ptr %5, align 4
  %50 = add i32 %49, %44
  %.not = icmp eq i32 %45, 0
  br i1 %.not, label %._crit_edge, label %.lr.ph

.lr.ph:                                           ; preds = %34, %.lr.ph
  %.0103107 = phi i32 [ %57, %.lr.ph ], [ 0, %34 ]
  %.0104106 = phi i32 [ %56, %.lr.ph ], [ %50, %34 ]
  %51 = call i32 @tvb_get_uintvar(ptr noundef %0, i32 noundef %.0104106, ptr noundef nonnull %5, ptr noundef %1, ptr noundef nonnull @ei_wsp_oversized_uintvar)
  %52 = load i32, ptr @hf_sir_protocol_options, align 4
  %53 = load i32, ptr %5, align 4
  %54 = call ptr @proto_tree_add_uint(ptr noundef %11, i32 noundef %52, ptr noundef %0, i32 noundef %.0104106, i32 noundef %53, i32 noundef %51)
  %55 = load i32, ptr %5, align 4
  %56 = add i32 %55, %.0104106
  %57 = add nuw i32 %.0103107, 1
  %exitcond.not = icmp eq i32 %57, %45
  br i1 %exitcond.not, label %._crit_edge, label %.lr.ph, !llvm.loop !15

._crit_edge:                                      ; preds = %.lr.ph, %34
  %.0104.lcssa = phi i32 [ %50, %34 ], [ %56, %.lr.ph ]
  %58 = call i32 @tvb_get_uintvar(ptr noundef %0, i32 noundef %.0104.lcssa, ptr noundef nonnull %5, ptr noundef %1, ptr noundef nonnull @ei_wsp_oversized_uintvar)
  %59 = load i32, ptr @hf_sir_prov_url_len, align 4
  %60 = load i32, ptr %5, align 4
  %61 = call ptr @proto_tree_add_uint(ptr noundef %11, i32 noundef %59, ptr noundef %0, i32 noundef %.0104.lcssa, i32 noundef %60, i32 noundef %58)
  %62 = load i32, ptr %5, align 4
  %63 = add i32 %62, %.0104.lcssa
  %64 = load i32, ptr @hf_sir_prov_url, align 4
  %65 = call ptr @proto_tree_add_item(ptr noundef %2, i32 noundef %64, ptr noundef %0, i32 noundef %63, i32 noundef %58, i32 noundef 0)
  %66 = add i32 %63, %58
  %67 = call i32 @tvb_get_uintvar(ptr noundef %0, i32 noundef %66, ptr noundef nonnull %5, ptr noundef %1, ptr noundef nonnull @ei_wsp_oversized_uintvar)
  %68 = load i32, ptr @hf_sir_cpi_tag_len, align 4
  %69 = load i32, ptr %5, align 4
  %70 = call ptr @proto_tree_add_uint(ptr noundef %11, i32 noundef %68, ptr noundef %0, i32 noundef %66, i32 noundef %69, i32 noundef %67)
  %.not113 = icmp eq i32 %67, 0
  br i1 %.not113, label %._crit_edge112, label %.lr.ph111.preheader

.lr.ph111.preheader:                              ; preds = %._crit_edge
  %71 = load i32, ptr %5, align 4
  %72 = add i32 %71, %66
  br label %.lr.ph111

.lr.ph111:                                        ; preds = %.lr.ph111.preheader, %.lr.ph111
  %.1109 = phi i32 [ %76, %.lr.ph111 ], [ 0, %.lr.ph111.preheader ]
  %.1105108 = phi i32 [ %75, %.lr.ph111 ], [ %72, %.lr.ph111.preheader ]
  %73 = load i32, ptr @hf_sir_cpi_tag, align 4
  %74 = call ptr @proto_tree_add_item(ptr noundef %11, i32 noundef %73, ptr noundef %0, i32 noundef %.1105108, i32 noundef 4, i32 noundef 0)
  %75 = add i32 %.1105108, 4
  %76 = add nuw i32 %.1109, 1
  %exitcond114.not = icmp eq i32 %76, %67
  br i1 %exitcond114.not, label %._crit_edge112, label %.lr.ph111, !llvm.loop !16

._crit_edge112:                                   ; preds = %.lr.ph111, %._crit_edge
  %77 = call i32 @tvb_captured_length(ptr noundef %0)
  br label %78

78:                                               ; preds = %4, %._crit_edge112
  %.0 = phi i32 [ %77, %._crit_edge112 ], [ %30, %4 ]
  call void @llvm.lifetime.end.p0(i64 4, ptr nonnull %5) #5
  ret i32 %.0
}